; Function Attrs: nounwind uwtable
define ptr @evmc_load_and_configure(ptr noundef readonly captures(none) %0, ptr noundef writeonly captures(address_is_null) %1) local_unnamed_addr #0 {
  %3 = alloca [4096 x i8], align 16
  call void @llvm.lifetime.start.p0(ptr nonnull %3) #10
  %4 = tail call i64 @strlen(ptr noundef nonnull readonly dereferenceable(1) %0) #9
  %.not.i = icmp ult i64 %4, 4096
  br i1 %.not.i, label %7, label %5

5:                                                ; preds = %2
  store i8 0, ptr %3, align 16, !tbaa !8
  %6 = tail call i32 (i32, ptr, ...) @set_error(i32 noundef 3, ptr noundef nonnull @.str.8, i32 noundef 4096)
  br label %.thread

7:                                                ; preds = %2
  call void @llvm.memcpy.p0.p0.i64(ptr nonnull align 16 %3, ptr nonnull readonly align 1 %0, i64 %4, i1 false)
  %8 = getelementptr inbounds nuw i8, ptr %3, i64 %4
  store i8 0, ptr %8, align 1, !tbaa !8
  %9 = call ptr @strchr(ptr noundef nonnull dereferenceable(1) %3, i32 noundef 44) #9
  %.not.i37 = icmp eq ptr %9, null
  br i1 %.not.i37, label %12, label %10

10:                                               ; preds = %7
  store i8 0, ptr %9, align 1, !tbaa !8
  %11 = getelementptr inbounds nuw i8, ptr %9, i64 1
  br label %get_token.exit

12:                                               ; preds = %7
  %13 = call i64 @strlen(ptr noundef nonnull dereferenceable(1) %3) #9
  %14 = getelementptr inbounds nuw i8, ptr %3, i64 %13
  br label %get_token.exit

get_token.exit:                                   ; preds = %10, %12
  %storemerge.i = phi ptr [ %14, %12 ], [ %11, %10 ]
  %15 = call ptr @evmc_load(ptr noundef nonnull %3, ptr noundef %1)
  %.not.i38 = icmp eq ptr %15, null
  br i1 %.not.i38, label %evmc_load_and_create.exit.thread, label %16

16:                                               ; preds = %get_token.exit
  %17 = call ptr %15() #10
  %.not19.i = icmp eq ptr %17, null
  br i1 %.not19.i, label %18, label %20

18:                                               ; preds = %16
  %19 = call i32 (i32, ptr, ...) @set_error(i32 noundef 4, ptr noundef nonnull @.str.6, ptr noundef nonnull %3)
  br label %26

20:                                               ; preds = %16
  %.val.i = load i32, ptr %17, align 8, !tbaa !13
  %21 = icmp eq i32 %.val.i, 12
  br i1 %21, label %26, label %22

22:                                               ; preds = %20
  %23 = call i32 (i32, ptr, ...) @set_error(i32 noundef 5, ptr noundef nonnull @.str.7, i32 noundef %.val.i, ptr noundef nonnull %3, i32 noundef 12)
  %24 = getelementptr inbounds nuw i8, ptr %17, i64 24
  %25 = load ptr, ptr %24, align 8, !tbaa !15
  call void %25(ptr noundef nonnull %17) #10
  br label %26

26:                                               ; preds = %22, %20, %18
  %.014.i = phi i32 [ 0, %20 ], [ 5, %22 ], [ 4, %18 ]
  %.0.i39 = phi ptr [ %17, %20 ], [ null, %22 ], [ null, %18 ]
  %.not20.i = icmp eq ptr %1, null
  br i1 %.not20.i, label %evmc_load_and_create.exit, label %27

27:                                               ; preds = %26
  store i32 %.014.i, ptr %1, align 4, !tbaa !11
  br label %evmc_load_and_create.exit

evmc_load_and_create.exit:                        ; preds = %26, %27
  %.not32 = icmp eq ptr %.0.i39, null
  br i1 %.not32, label %evmc_load_and_create.exit.thread, label %.preheader

.preheader:                                       ; preds = %evmc_load_and_create.exit
  %28 = getelementptr inbounds nuw i8, ptr %.0.i39, i64 48
  br label %29

29:                                               ; preds = %.preheader, %get_token.exit45
  %.052 = phi ptr [ %storemerge.i41, %get_token.exit45 ], [ %storemerge.i, %.preheader ]
  %char0 = load i8, ptr %.052, align 1
  %.not33 = icmp eq i8 %char0, 0
  br i1 %.not33, label %.thread, label %30

30:                                               ; preds = %29
  %31 = load ptr, ptr %28, align 8, !tbaa !16
  %32 = icmp eq ptr %31, null
  br i1 %32, label %33, label %37

33:                                               ; preds = %30
  %34 = getelementptr inbounds nuw i8, ptr %.0.i39, i64 8
  %35 = load ptr, ptr %34, align 8, !tbaa !17
  %36 = call i32 (i32, ptr, ...) @set_error(i32 noundef 6, ptr noundef nonnull @.str.9, ptr noundef %35, ptr noundef nonnull %3)
  br label %.thread

37:                                               ; preds = %30
  %38 = call ptr @strchr(ptr noundef nonnull dereferenceable(1) %.052, i32 noundef 44) #9
  %.not.i40 = icmp eq ptr %38, null
  br i1 %.not.i40, label %41, label %39

39:                                               ; preds = %37
  store i8 0, ptr %38, align 1, !tbaa !8
  %40 = getelementptr inbounds nuw i8, ptr %38, i64 1
  br label %get_token.exit42

41:                                               ; preds = %37
  %42 = call i64 @strlen(ptr noundef nonnull dereferenceable(1) %.052) #9
  %43 = getelementptr inbounds nuw i8, ptr %.052, i64 %42
  br label %get_token.exit42

get_token.exit42:                                 ; preds = %39, %41
  %storemerge.i41 = phi ptr [ %43, %41 ], [ %40, %39 ]
  %44 = call ptr @strchr(ptr noundef nonnull dereferenceable(1) %.052, i32 noundef 61) #9
  %.not.i43 = icmp eq ptr %44, null
  br i1 %.not.i43, label %47, label %45

45:                                               ; preds = %get_token.exit42
  store i8 0, ptr %44, align 1, !tbaa !8
  %46 = getelementptr inbounds nuw i8, ptr %44, i64 1
  br label %get_token.exit45

47:                                               ; preds = %get_token.exit42
  %48 = call i64 @strlen(ptr noundef nonnull dereferenceable(1) %.052) #9
  %49 = getelementptr inbounds nuw i8, ptr %.052, i64 %48
  br label %get_token.exit45

get_token.exit45:                                 ; preds = %45, %47
  %storemerge.i44 = phi ptr [ %49, %47 ], [ %46, %45 ]
  %50 = load ptr, ptr %28, align 8, !tbaa !16
  %51 = call i32 %50(ptr noundef nonnull %.0.i39, ptr noundef nonnull %.052, ptr noundef nonnull %storemerge.i44) #10
  switch i32 %51, label %60 [
    i32 0, label %29
    i32 1, label %52
    i32 2, label %56
  ]

52:                                               ; preds = %get_token.exit45
  %53 = getelementptr inbounds nuw i8, ptr %.0.i39, i64 8
  %54 = load ptr, ptr %53, align 8, !tbaa !17
  %55 = call i32 (i32, ptr, ...) @set_error(i32 noundef 6, ptr noundef nonnull @.str.10, ptr noundef %54, ptr noundef nonnull %3, ptr noundef nonnull %.052)
  br label %.thread

56:                                               ; preds = %get_token.exit45
  %57 = getelementptr inbounds nuw i8, ptr %.0.i39, i64 8
  %58 = load ptr, ptr %57, align 8, !tbaa !17
  %59 = call i32 (i32, ptr, ...) @set_error(i32 noundef 7, ptr noundef nonnull @.str.11, ptr noundef %58, ptr noundef nonnull %3, ptr noundef nonnull %storemerge.i44, ptr noundef nonnull %.052)
  br label %.thread

60:                                               ; preds = %get_token.exit45
  %61 = getelementptr inbounds nuw i8, ptr %.0.i39, i64 8
  %62 = load ptr, ptr %61, align 8, !tbaa !17
  %63 = call i32 (i32, ptr, ...) @set_error(i32 noundef 7, ptr noundef nonnull @.str.12, ptr noundef %62, ptr noundef nonnull %3, ptr noundef nonnull %storemerge.i44, ptr noundef nonnull %.052)
  br label %.thread

.thread:                                          ; preds = %29, %56, %52, %60, %33, %5
  %.030 = phi ptr [ null, %5 ], [ %.0.i39, %33 ], [ %.0.i39, %60 ], [ %.0.i39, %52 ], [ %.0.i39, %56 ], [ %.0.i39, %29 ]
  %64 = phi i1 [ false, %5 ], [ false, %33 ], [ false, %60 ], [ false, %52 ], [ false, %56 ], [ true, %29 ]
  %.028 = phi i32 [ 3, %5 ], [ 6, %33 ], [ 7, %60 ], [ 6, %52 ], [ 7, %56 ], [ 0, %29 ]
  %.not34 = icmp eq ptr %1, null
  br i1 %.not34, label %66, label %65

65:                                               ; preds = %.thread
  store i32 %.028, ptr %1, align 4, !tbaa !11
  br label %66

66:                                               ; preds = %65, %.thread
  br i1 %64, label %evmc_load_and_create.exit.thread, label %67

67:                                               ; preds = %66
  %.not35 = icmp eq ptr %.030, null
  br i1 %.not35, label %evmc_load_and_create.exit.thread, label %68

68:                                               ; preds = %67
  %69 = getelementptr inbounds nuw i8, ptr %.030, i64 24
  %70 = load ptr, ptr %69, align 8, !tbaa !15
  call void %70(ptr noundef nonnull %.030) #10
  br label %evmc_load_and_create.exit.thread

evmc_load_and_create.exit.thread:                 ; preds = %get_token.exit, %67, %68, %66, %evmc_load_and_create.exit
  %.0 = phi ptr [ null, %evmc_load_and_create.exit ], [ %.030, %66 ], [ null, %68 ], [ null, %67 ], [ null, %get_token.exit ]
  call void @llvm.lifetime.end.p0(ptr nonnull %3) #10
  ret ptr %.0
}